target datalayout = "e-m:e-p270:32:32-p271:32:32-p272:64:64-i64:64-i128:128-f80:128-n8:16:32:64-S128"
target triple = "x86_64-pc-linux-gnu"

%struct.Vec_Int_t_ = type { i32, i32, ptr }
%struct.Min_Man_t_ = type { i32, i32, i32, i32, %struct.Vec_Int_t_, %struct.Vec_Str_t_, %struct.Vec_Str_t_, %struct.Vec_Int_t_, %struct.Vec_Int_t_ }
%struct.Vec_Str_t_ = type { i32, i32, ptr }

; Function Attrs: inlinehint nounwind uwtable
define internal void @Vec_IntGrow(ptr noundef %0, i32 noundef %1) #2 {
  %3 = alloca ptr, align 8
  %4 = alloca i32, align 4
  store ptr %0, ptr %3, align 8, !tbaa !35
  store i32 %1, ptr %4, align 4, !tbaa !10
  %5 = load ptr, ptr %3, align 8, !tbaa !35
  %6 = getelementptr inbounds nuw %struct.Vec_Int_t_, ptr %5, i32 0, i32 0
  %7 = load i32, ptr %6, align 8, !tbaa !54
  %8 = load i32, ptr %4, align 4, !tbaa !10
  %9 = icmp sge i32 %7, %8
  br i1 %9, label %10, label %11

10:                                               ; preds = %2
  br label %36

11:                                               ; preds = %2
  %12 = load ptr, ptr %3, align 8, !tbaa !35
  %13 = getelementptr inbounds nuw %struct.Vec_Int_t_, ptr %12, i32 0, i32 2
  %14 = load ptr, ptr %13, align 8, !tbaa !52
  %15 = icmp ne ptr %14, null
  br i1 %15, label %16, label %24

16:                                               ; preds = %11
  %17 = load ptr, ptr %3, align 8, !tbaa !35
  %18 = getelementptr inbounds nuw %struct.Vec_Int_t_, ptr %17, i32 0, i32 2
  %19 = load ptr, ptr %18, align 8, !tbaa !52
  %20 = load i32, ptr %4, align 4, !tbaa !10
  %21 = sext i32 %20 to i64
  %22 = mul i64 4, %21
  %23 = call ptr @realloc(ptr noundef %19, i64 noundef %22) #17
  br label %29

24:                                               ; preds = %11
  %25 = load i32, ptr %4, align 4, !tbaa !10
  %26 = sext i32 %25 to i64
  %27 = mul i64 4, %26
  %28 = call noalias ptr @malloc(i64 noundef %27) #15
  br label %29

29:                                               ; preds = %24, %16
  %30 = phi ptr [ %23, %16 ], [ %28, %24 ]
  %31 = load ptr, ptr %3, align 8, !tbaa !35
  %32 = getelementptr inbounds nuw %struct.Vec_Int_t_, ptr %31, i32 0, i32 2
  store ptr %30, ptr %32, align 8, !tbaa !52
  %33 = load i32, ptr %4, align 4, !tbaa !10
  %34 = load ptr, ptr %3, align 8, !tbaa !35
  %35 = getelementptr inbounds nuw %struct.Vec_Int_t_, ptr %34, i32 0, i32 0
  store i32 %33, ptr %35, align 8, !tbaa !54
  br label %36

36:                                               ; preds = %29, %10
  ret void
}

; Function Attrs: inlinehint nounwind uwtable
define internal void @Vec_IntPush(ptr noundef %0, i32 noundef %1) #2 {
  %3 = alloca ptr, align 8
  %4 = alloca i32, align 4
  store ptr %0, ptr %3, align 8, !tbaa !35
  store i32 %1, ptr %4, align 4, !tbaa !10
  %5 = load ptr, ptr %3, align 8, !tbaa !35
  %6 = getelementptr inbounds nuw %struct.Vec_Int_t_, ptr %5, i32 0, i32 1
  %7 = load i32, ptr %6, align 4, !tbaa !45
  %8 = load ptr, ptr %3, align 8, !tbaa !35
  %9 = getelementptr inbounds nuw %struct.Vec_Int_t_, ptr %8, i32 0, i32 0
  %10 = load i32, ptr %9, align 8, !tbaa !54
  %11 = icmp eq i32 %7, %10
  br i1 %11, label %12, label %26

12:                                               ; preds = %2
  %13 = load ptr, ptr %3, align 8, !tbaa !35
  %14 = getelementptr inbounds nuw %struct.Vec_Int_t_, ptr %13, i32 0, i32 0
  %15 = load i32, ptr %14, align 8, !tbaa !54
  %16 = icmp slt i32 %15, 16
  br i1 %16, label %17, label %19

17:                                               ; preds = %12
  %18 = load ptr, ptr %3, align 8, !tbaa !35
  call void @Vec_IntGrow(ptr noundef %18, i32 noundef 16)
  br label %25

19:                                               ; preds = %12
  %20 = load ptr, ptr %3, align 8, !tbaa !35
  %21 = load ptr, ptr %3, align 8, !tbaa !35
  %22 = getelementptr inbounds nuw %struct.Vec_Int_t_, ptr %21, i32 0, i32 0
  %23 = load i32, ptr %22, align 8, !tbaa !54
  %24 = mul nsw i32 2, %23
  call void @Vec_IntGrow(ptr noundef %20, i32 noundef %24)
  br label %25

25:                                               ; preds = %19, %17
  br label %26

26:                                               ; preds = %25, %2
  %27 = load i32, ptr %4, align 4, !tbaa !10
  %28 = load ptr, ptr %3, align 8, !tbaa !35
  %29 = getelementptr inbounds nuw %struct.Vec_Int_t_, ptr %28, i32 0, i32 2
  %30 = load ptr, ptr %29, align 8, !tbaa !52
  %31 = load ptr, ptr %3, align 8, !tbaa !35
  %32 = getelementptr inbounds nuw %struct.Vec_Int_t_, ptr %31, i32 0, i32 1
  %33 = load i32, ptr %32, align 4, !tbaa !45
  %34 = add nsw i32 %33, 1
  store i32 %34, ptr %32, align 4, !tbaa !45
  %35 = sext i32 %33 to i64
  %36 = getelementptr inbounds i32, ptr %30, i64 %35
  store i32 %27, ptr %36, align 4, !tbaa !10
  ret void
}

; Function Attrs: inlinehint nounwind uwtable
define internal i32 @Abc_Lit2Var(i32 noundef %0) #2 {
  %2 = alloca i32, align 4
  store i32 %0, ptr %2, align 4, !tbaa !10
  %3 = load i32, ptr %2, align 4, !tbaa !10
  %4 = ashr i32 %3, 1
  ret i32 %4
}

; Function Attrs: inlinehint nounwind uwtable
define internal void @Vec_StrWriteEntry(ptr noundef %0, i32 noundef %1, i8 noundef signext %2) #2 {
  %4 = alloca ptr, align 8
  %5 = alloca i32, align 4
  %6 = alloca i8, align 1
  store ptr %0, ptr %4, align 8, !tbaa !186
  store i32 %1, ptr %5, align 4, !tbaa !10
  store i8 %2, ptr %6, align 1, !tbaa !53
  %7 = load i8, ptr %6, align 1, !tbaa !53
  %8 = load ptr, ptr %4, align 8, !tbaa !186
  %9 = getelementptr inbounds nuw %struct.Vec_Str_t_, ptr %8, i32 0, i32 2
  %10 = load ptr, ptr %9, align 8, !tbaa !187
  %11 = load i32, ptr %5, align 4, !tbaa !10
  %12 = sext i32 %11 to i64
  %13 = getelementptr inbounds i8, ptr %10, i64 %12
  store i8 %7, ptr %13, align 1, !tbaa !53
  ret void
}

; Function Attrs: inlinehint nounwind uwtable
define internal signext i8 @Vec_StrEntry(ptr noundef %0, i32 noundef %1) #2 {
  %3 = alloca ptr, align 8
  %4 = alloca i32, align 4
  store ptr %0, ptr %3, align 8, !tbaa !186
  store i32 %1, ptr %4, align 4, !tbaa !10
  %5 = load ptr, ptr %3, align 8, !tbaa !186
  %6 = getelementptr inbounds nuw %struct.Vec_Str_t_, ptr %5, i32 0, i32 2
  %7 = load ptr, ptr %6, align 8, !tbaa !187
  %8 = load i32, ptr %4, align 4, !tbaa !10
  %9 = sext i32 %8 to i64
  %10 = getelementptr inbounds i8, ptr %7, i64 %9
  %11 = load i8, ptr %10, align 1, !tbaa !53
  ret i8 %11
}

; Function Attrs: inlinehint nounwind uwtable
define internal i32 @Vec_IntEntry(ptr noundef %0, i32 noundef %1) #2 {
  %3 = alloca ptr, align 8
  %4 = alloca i32, align 4
  store ptr %0, ptr %3, align 8, !tbaa !35
  store i32 %1, ptr %4, align 4, !tbaa !10
  %5 = load ptr, ptr %3, align 8, !tbaa !35
  %6 = getelementptr inbounds nuw %struct.Vec_Int_t_, ptr %5, i32 0, i32 2
  %7 = load ptr, ptr %6, align 8, !tbaa !52
  %8 = load i32, ptr %4, align 4, !tbaa !10
  %9 = sext i32 %8 to i64
  %10 = getelementptr inbounds i32, ptr %7, i64 %9
  %11 = load i32, ptr %10, align 4, !tbaa !10
  ret i32 %11
}

; Function Attrs: inlinehint nounwind uwtable
define internal void @Min_LitSetValL(ptr noundef %0, i32 noundef %1, i8 noundef signext %2) #2 {
  %4 = alloca ptr, align 8
  %5 = alloca i32, align 4
  %6 = alloca i8, align 1
  store ptr %0, ptr %4, align 8, !tbaa !3
  store i32 %1, ptr %5, align 4, !tbaa !10
  store i8 %2, ptr %6, align 1, !tbaa !53
  %7 = load ptr, ptr %4, align 8, !tbaa !3
  %8 = getelementptr inbounds nuw %struct.Min_Man_t_, ptr %7, i32 0, i32 6
  %9 = load i32, ptr %5, align 4, !tbaa !10
  %10 = load i8, ptr %6, align 1, !tbaa !53
  call void @Vec_StrWriteEntry(ptr noundef %8, i32 noundef %9, i8 noundef signext %10)
  %11 = load ptr, ptr %4, align 8, !tbaa !3
  %12 = getelementptr inbounds nuw %struct.Min_Man_t_, ptr %11, i32 0, i32 6
  %13 = load i32, ptr %5, align 4, !tbaa !10
  %14 = xor i32 %13, 1
  %15 = load i8, ptr %6, align 1, !tbaa !53
  %16 = icmp ne i8 %15, 0
  %17 = xor i1 %16, true
  %18 = zext i1 %17 to i32
  %19 = trunc i32 %18 to i8
  call void @Vec_StrWriteEntry(ptr noundef %12, i32 noundef %14, i8 noundef signext %19)
  %20 = load ptr, ptr %4, align 8, !tbaa !3
  %21 = getelementptr inbounds nuw %struct.Min_Man_t_, ptr %20, i32 0, i32 7
  %22 = load i32, ptr %5, align 4, !tbaa !10
  %23 = call i32 @Abc_Lit2Var(i32 noundef %22)
  call void @Vec_IntPush(ptr noundef %21, i32 noundef %23)
  ret void
}

; Function Attrs: inlinehint nounwind uwtable
define internal i32 @Abc_LitIsCompl(i32 noundef %0) #2 {
  %2 = alloca i32, align 4
  store i32 %0, ptr %2, align 4, !tbaa !10
  %3 = load i32, ptr %2, align 4, !tbaa !10
  %4 = and i32 %3, 1
  ret i32 %4
}

; Function Attrs: inlinehint nounwind uwtable
define internal signext i8 @Min_XsimAnd(i8 noundef signext %0, i8 noundef signext %1) #2 {
  %3 = alloca i8, align 1
  %4 = alloca i8, align 1
  %5 = alloca i8, align 1
  store i8 %0, ptr %4, align 1, !tbaa !53
  store i8 %1, ptr %5, align 1, !tbaa !53
  %6 = load i8, ptr %4, align 1, !tbaa !53
  %7 = sext i8 %6 to i32
  %8 = icmp eq i32 %7, 0
  br i1 %8, label %13, label %9

9:                                                ; preds = %2
  %10 = load i8, ptr %5, align 1, !tbaa !53
  %11 = sext i8 %10 to i32
  %12 = icmp eq i32 %11, 0
  br i1 %12, label %13, label %14

13:                                               ; preds = %9, %2
  store i8 0, ptr %3, align 1
  br label %24

14:                                               ; preds = %9
  %15 = load i8, ptr %4, align 1, !tbaa !53
  %16 = sext i8 %15 to i32
  %17 = icmp eq i32 %16, 1
  br i1 %17, label %18, label %23

18:                                               ; preds = %14
  %19 = load i8, ptr %5, align 1, !tbaa !53
  %20 = sext i8 %19 to i32
  %21 = icmp eq i32 %20, 1
  br i1 %21, label %22, label %23

22:                                               ; preds = %18
  store i8 1, ptr %3, align 1
  br label %24

23:                                               ; preds = %18, %14
  store i8 2, ptr %3, align 1
  br label %24

24:                                               ; preds = %23, %22, %13
  %25 = load i8, ptr %3, align 1
  ret i8 %25
}

; Function Attrs: inlinehint nounwind uwtable
define internal signext i8 @Min_XsimXor(i8 noundef signext %0, i8 noundef signext %1) #2 {
  %3 = alloca i8, align 1
  %4 = alloca i8, align 1
  %5 = alloca i8, align 1
  store i8 %0, ptr %4, align 1, !tbaa !53
  store i8 %1, ptr %5, align 1, !tbaa !53
  %6 = load i8, ptr %4, align 1, !tbaa !53
  %7 = sext i8 %6 to i32
  %8 = icmp slt i32 %7, 2
  br i1 %8, label %9, label %20

9:                                                ; preds = %2
  %10 = load i8, ptr %5, align 1, !tbaa !53
  %11 = sext i8 %10 to i32
  %12 = icmp slt i32 %11, 2
  br i1 %12, label %13, label %20

13:                                               ; preds = %9
  %14 = load i8, ptr %4, align 1, !tbaa !53
  %15 = sext i8 %14 to i32
  %16 = load i8, ptr %5, align 1, !tbaa !53
  %17 = sext i8 %16 to i32
  %18 = xor i32 %15, %17
  %19 = trunc i32 %18 to i8
  store i8 %19, ptr %3, align 1
  br label %21

20:                                               ; preds = %9, %2
  store i8 2, ptr %3, align 1
  br label %21

21:                                               ; preds = %20, %13
  %22 = load i8, ptr %3, align 1
  ret i8 %22
}

; Function Attrs: inlinehint nounwind uwtable
define internal i32 @Min_LitIsXor(i32 noundef %0, i32 noundef %1, i32 noundef %2) #2 {
  %4 = alloca i32, align 4
  %5 = alloca i32, align 4
  %6 = alloca i32, align 4
  store i32 %0, ptr %4, align 4, !tbaa !10
  store i32 %1, ptr %5, align 4, !tbaa !10
  store i32 %2, ptr %6, align 4, !tbaa !10
  %7 = load i32, ptr %4, align 4, !tbaa !10
  %8 = call i32 @Abc_LitIsCompl(i32 noundef %7)
  %9 = load i32, ptr %5, align 4, !tbaa !10
  %10 = load i32, ptr %6, align 4, !tbaa !10
  %11 = icmp sgt i32 %9, %10
  %12 = zext i1 %11 to i32
  %13 = xor i32 %8, %12
  ret i32 %13
}

; Function Attrs: inlinehint nounwind uwtable
define internal i32 @Min_LitIsNode(ptr noundef %0, i32 noundef %1) #2 {
  %3 = alloca ptr, align 8
  %4 = alloca i32, align 4
  store ptr %0, ptr %3, align 8, !tbaa !3
  store i32 %1, ptr %4, align 4, !tbaa !10
  %5 = load i32, ptr %4, align 4, !tbaa !10
  %6 = load ptr, ptr %3, align 8, !tbaa !3
  %7 = getelementptr inbounds nuw %struct.Min_Man_t_, ptr %6, i32 0, i32 2
  %8 = load i32, ptr %7, align 8, !tbaa !49
  %9 = icmp sge i32 %5, %8
  br i1 %9, label %10, label %16

10:                                               ; preds = %2
  %11 = load i32, ptr %4, align 4, !tbaa !10
  %12 = load ptr, ptr %3, align 8, !tbaa !3
  %13 = getelementptr inbounds nuw %struct.Min_Man_t_, ptr %12, i32 0, i32 3
  %14 = load i32, ptr %13, align 4, !tbaa !51
  %15 = icmp slt i32 %11, %14
  br label %16

16:                                               ; preds = %10, %2
  %17 = phi i1 [ false, %2 ], [ %15, %10 ]
  %18 = zext i1 %17 to i32
  ret i32 %18
}

; Function Attrs: inlinehint nounwind uwtable
define internal signext i8 @Min_LitValL(ptr noundef %0, i32 noundef %1) #2 {
  %3 = alloca ptr, align 8
  %4 = alloca i32, align 4
  store ptr %0, ptr %3, align 8, !tbaa !3
  store i32 %1, ptr %4, align 4, !tbaa !10
  %5 = load ptr, ptr %3, align 8, !tbaa !3
  %6 = getelementptr inbounds nuw %struct.Min_Man_t_, ptr %5, i32 0, i32 6
  %7 = load i32, ptr %4, align 4, !tbaa !10
  %8 = call signext i8 @Vec_StrEntry(ptr noundef %6, i32 noundef %7)
  ret i8 %8
}

; Function Attrs: inlinehint nounwind uwtable
define internal i32 @Min_LitFan(ptr noundef %0, i32 noundef %1) #2 {
  %3 = alloca ptr, align 8
  %4 = alloca i32, align 4
  store ptr %0, ptr %3, align 8, !tbaa !3
  store i32 %1, ptr %4, align 4, !tbaa !10
  %5 = load ptr, ptr %3, align 8, !tbaa !3
  %6 = getelementptr inbounds nuw %struct.Min_Man_t_, ptr %5, i32 0, i32 4
  %7 = load i32, ptr %4, align 4, !tbaa !10
  %8 = call i32 @Vec_IntEntry(ptr noundef %6, i32 noundef %7)
  ret i32 %8
}

; Function Attrs: inlinehint nounwind uwtable
define internal signext i8 @Min_LitIsImplied2(ptr noundef %0, i32 noundef %1) #2 {
  %3 = alloca ptr, align 8
  %4 = alloca i32, align 4
  %5 = alloca i8, align 1
  %6 = alloca i32, align 4
  %7 = alloca i32, align 4
  %8 = alloca i8, align 1
  %9 = alloca i8, align 1
  store ptr %0, ptr %3, align 8, !tbaa !3
  store i32 %1, ptr %4, align 4, !tbaa !10
  call void @llvm.lifetime.start.p0(i64 1, ptr %5) #13
  store i8 2, ptr %5, align 1, !tbaa !53
  call void @llvm.lifetime.start.p0(i64 4, ptr %6) #13
  %10 = load ptr, ptr %3, align 8, !tbaa !3
  %11 = load i32, ptr %4, align 4, !tbaa !10
  %12 = call i32 @Min_LitFan(ptr noundef %10, i32 noundef %11)
  store i32 %12, ptr %6, align 4, !tbaa !10
  call void @llvm.lifetime.start.p0(i64 4, ptr %7) #13
  %13 = load ptr, ptr %3, align 8, !tbaa !3
  %14 = load i32, ptr %4, align 4, !tbaa !10
  %15 = xor i32 %14, 1
  %16 = call i32 @Min_LitFan(ptr noundef %13, i32 noundef %15)
  store i32 %16, ptr %7, align 4, !tbaa !10
  call void @llvm.lifetime.start.p0(i64 1, ptr %8) #13
  %17 = load ptr, ptr %3, align 8, !tbaa !3
  %18 = load i32, ptr %6, align 4, !tbaa !10
  %19 = call signext i8 @Min_LitValL(ptr noundef %17, i32 noundef %18)
  store i8 %19, ptr %8, align 1, !tbaa !53
  call void @llvm.lifetime.start.p0(i64 1, ptr %9) #13
  %20 = load ptr, ptr %3, align 8, !tbaa !3
  %21 = load i32, ptr %7, align 4, !tbaa !10
  %22 = call signext i8 @Min_LitValL(ptr noundef %20, i32 noundef %21)
  store i8 %22, ptr %9, align 1, !tbaa !53
  %23 = load i8, ptr %8, align 1, !tbaa !53
  %24 = sext i8 %23 to i32
  %25 = icmp eq i32 %24, 2
  br i1 %25, label %26, label %38

26:                                               ; preds = %2
  %27 = load ptr, ptr %3, align 8, !tbaa !3
  %28 = load i32, ptr %6, align 4, !tbaa !10
  %29 = call i32 @Min_LitIsNode(ptr noundef %27, i32 noundef %28)
  %30 = icmp ne i32 %29, 0
  br i1 %30, label %31, label %38

31:                                               ; preds = %26
  %32 = load ptr, ptr %3, align 8, !tbaa !3
  %33 = load i32, ptr %6, align 4, !tbaa !10
  %34 = call signext i8 @Min_LitIsImplied1(ptr noundef %32, i32 noundef %33)
  store i8 %34, ptr %8, align 1, !tbaa !53
  %35 = load ptr, ptr %3, align 8, !tbaa !3
  %36 = load i32, ptr %7, align 4, !tbaa !10
  %37 = call signext i8 @Min_LitValL(ptr noundef %35, i32 noundef %36)
  store i8 %37, ptr %9, align 1, !tbaa !53
  br label %38

38:                                               ; preds = %31, %26, %2
  %39 = load i8, ptr %9, align 1, !tbaa !53
  %40 = sext i8 %39 to i32
  %41 = icmp eq i32 %40, 2
  br i1 %41, label %42, label %51

42:                                               ; preds = %38
  %43 = load ptr, ptr %3, align 8, !tbaa !3
  %44 = load i32, ptr %7, align 4, !tbaa !10
  %45 = call i32 @Min_LitIsNode(ptr noundef %43, i32 noundef %44)
  %46 = icmp ne i32 %45, 0
  br i1 %46, label %47, label %51

47:                                               ; preds = %42
  %48 = load ptr, ptr %3, align 8, !tbaa !3
  %49 = load i32, ptr %7, align 4, !tbaa !10
  %50 = call signext i8 @Min_LitIsImplied1(ptr noundef %48, i32 noundef %49)
  store i8 %50, ptr %9, align 1, !tbaa !53
  br label %51

51:                                               ; preds = %47, %42, %38
  %52 = load i32, ptr %4, align 4, !tbaa !10
  %53 = load i32, ptr %6, align 4, !tbaa !10
  %54 = load i32, ptr %7, align 4, !tbaa !10
  %55 = call i32 @Min_LitIsXor(i32 noundef %52, i32 noundef %53, i32 noundef %54)
  %56 = icmp ne i32 %55, 0
  br i1 %56, label %57, label %61

57:                                               ; preds = %51
  %58 = load i8, ptr %8, align 1, !tbaa !53
  %59 = load i8, ptr %9, align 1, !tbaa !53
  %60 = call signext i8 @Min_XsimXor(i8 noundef signext %58, i8 noundef signext %59)
  store i8 %60, ptr %5, align 1, !tbaa !53
  br label %65

61:                                               ; preds = %51
  %62 = load i8, ptr %8, align 1, !tbaa !53
  %63 = load i8, ptr %9, align 1, !tbaa !53
  %64 = call signext i8 @Min_XsimAnd(i8 noundef signext %62, i8 noundef signext %63)
  store i8 %64, ptr %5, align 1, !tbaa !53
  br label %65

65:                                               ; preds = %61, %57
  %66 = load i8, ptr %5, align 1, !tbaa !53
  %67 = sext i8 %66 to i32
  %68 = icmp slt i32 %67, 2
  br i1 %68, label %69, label %79

69:                                               ; preds = %65
  %70 = load i32, ptr %4, align 4, !tbaa !10
  %71 = call i32 @Abc_LitIsCompl(i32 noundef %70)
  %72 = load i8, ptr %5, align 1, !tbaa !53
  %73 = sext i8 %72 to i32
  %74 = xor i32 %73, %71
  %75 = trunc i32 %74 to i8
  store i8 %75, ptr %5, align 1, !tbaa !53
  %76 = load ptr, ptr %3, align 8, !tbaa !3
  %77 = load i32, ptr %4, align 4, !tbaa !10
  %78 = load i8, ptr %5, align 1, !tbaa !53
  call void @Min_LitSetValL(ptr noundef %76, i32 noundef %77, i8 noundef signext %78)
  br label %79

79:                                               ; preds = %69, %65
  %80 = load i8, ptr %5, align 1, !tbaa !53
  call void @llvm.lifetime.end.p0(i64 1, ptr %9) #13
  call void @llvm.lifetime.end.p0(i64 1, ptr %8) #13
  call void @llvm.lifetime.end.p0(i64 4, ptr %7) #13
  call void @llvm.lifetime.end.p0(i64 4, ptr %6) #13
  call void @llvm.lifetime.end.p0(i64 1, ptr %5) #13
  ret i8 %80
}