; Function Attrs: inlinehint mustprogress nounwind willreturn uwtable
define internal fastcc signext i8 @Min_LitIsImplied2(ptr noundef captures(none) %0, i32 noundef %1) unnamed_addr #3 {
  %3 = getelementptr i8, ptr %0, i64 24
  %.val42 = load ptr, ptr %3, align 8, !tbaa !32
  %4 = sext i32 %1 to i64
  %5 = getelementptr inbounds i32, ptr %.val42, i64 %4
  %6 = load i32, ptr %5, align 4, !tbaa !35
  %7 = xor i32 %1, 1
  %8 = sext i32 %7 to i64
  %9 = getelementptr inbounds i32, ptr %.val42, i64 %8
  %10 = load i32, ptr %9, align 4, !tbaa !35
  %11 = getelementptr i8, ptr %0, i64 56
  %.val40 = load ptr, ptr %11, align 8, !tbaa !49
  %12 = sext i32 %6 to i64
  %13 = getelementptr inbounds i8, ptr %.val40, i64 %12
  %14 = load i8, ptr %13, align 1, !tbaa !50
  %15 = sext i32 %10 to i64
  %16 = getelementptr inbounds i8, ptr %.val40, i64 %15
  %17 = load i8, ptr %16, align 1, !tbaa !50
  %18 = icmp eq i8 %14, 2
  br i1 %18, label %19, label %Min_LitIsNode.exit.thread

19:                                               ; preds = %2
  %20 = getelementptr inbounds nuw i8, ptr %0, i64 8
  %21 = load i32, ptr %20, align 8, !tbaa !39
  %.not.i = icmp slt i32 %6, %21
  br i1 %.not.i, label %Min_LitIsNode.exit.thread, label %Min_LitIsNode.exit

Min_LitIsNode.exit:                               ; preds = %19
  %22 = getelementptr inbounds nuw i8, ptr %0, i64 12
  %23 = load i32, ptr %22, align 4, !tbaa !45
  %.not = icmp slt i32 %6, %23
  br i1 %.not, label %24, label %Min_LitIsNode.exit.thread

24:                                               ; preds = %Min_LitIsNode.exit
  %25 = tail call fastcc signext i8 @Min_LitIsImplied1(ptr noundef nonnull %0, i32 noundef %6)
  %.val = load ptr, ptr %11, align 8, !tbaa !49
  %26 = getelementptr inbounds i8, ptr %.val, i64 %15
  %27 = load i8, ptr %26, align 1, !tbaa !50
  br label %Min_LitIsNode.exit.thread

Min_LitIsNode.exit.thread:                        ; preds = %19, %24, %Min_LitIsNode.exit, %2
  %.033 = phi i8 [ %25, %24 ], [ 2, %Min_LitIsNode.exit ], [ %14, %2 ], [ 2, %19 ]
  %.0 = phi i8 [ %27, %24 ], [ %17, %Min_LitIsNode.exit ], [ %17, %2 ], [ %17, %19 ]
  %28 = icmp eq i8 %.0, 2
  br i1 %28, label %29, label %Min_LitIsNode.exit44.thread

29:                                               ; preds = %Min_LitIsNode.exit.thread
  %30 = getelementptr inbounds nuw i8, ptr %0, i64 8
  %31 = load i32, ptr %30, align 8, !tbaa !39
  %.not.i43 = icmp slt i32 %10, %31
  br i1 %.not.i43, label %Min_LitIsNode.exit44.thread, label %Min_LitIsNode.exit44

Min_LitIsNode.exit44:                             ; preds = %29
  %32 = getelementptr inbounds nuw i8, ptr %0, i64 12
  %33 = load i32, ptr %32, align 4, !tbaa !45
  %.not55 = icmp slt i32 %10, %33
  br i1 %.not55, label %34, label %Min_LitIsNode.exit44.thread

34:                                               ; preds = %Min_LitIsNode.exit44
  %35 = tail call fastcc signext i8 @Min_LitIsImplied1(ptr noundef nonnull %0, i32 noundef %10)
  br label %Min_LitIsNode.exit44.thread

Min_LitIsNode.exit44.thread:                      ; preds = %29, %34, %Min_LitIsNode.exit44, %Min_LitIsNode.exit.thread
  %.1 = phi i8 [ %35, %34 ], [ 2, %Min_LitIsNode.exit44 ], [ %.0, %Min_LitIsNode.exit.thread ], [ 2, %29 ]
  %36 = trunc i32 %1 to i1
  %37 = icmp sle i32 %6, %10
  %.not38 = xor i1 %37, %36
  br i1 %.not38, label %42, label %38

38:                                               ; preds = %Min_LitIsNode.exit44.thread
  %39 = icmp slt i8 %.033, 2
  %40 = icmp slt i8 %.1, 2
  %or.cond.i = and i1 %39, %40
  %41 = xor i8 %.1, %.033
  br i1 %or.cond.i, label %select.unfold, label %.thread53

42:                                               ; preds = %Min_LitIsNode.exit44.thread
  %43 = icmp eq i8 %.033, 0
  %44 = icmp eq i8 %.1, 0
  %or.cond.i45 = or i1 %43, %44
  %45 = icmp eq i8 %.033, 1
  %46 = icmp eq i8 %.1, 1
  %or.cond5.i = and i1 %45, %46
  %..i = select i1 %or.cond5.i, i8 1, i8 2
  br i1 %or.cond.i45, label %.thread, label %select.unfold

select.unfold:                                    ; preds = %38, %42
  %.034 = phi i8 [ %..i, %42 ], [ %41, %38 ]
  %47 = icmp slt i8 %.034, 2
  br i1 %47, label %.thread, label %.thread53

.thread:                                          ; preds = %42, %select.unfold
  %.03452 = phi i8 [ %.034, %select.unfold ], [ 0, %42 ]
  %48 = trunc i32 %1 to i8
  %49 = and i8 %48, 1
  %50 = xor i8 %.03452, %49
  %.val.i = load ptr, ptr %11, align 8, !tbaa !49
  %51 = getelementptr inbounds i8, ptr %.val.i, i64 %4
  store i8 %50, ptr %51, align 1, !tbaa !50
  %.not.i47 = icmp eq i8 %.03452, %49
  %52 = zext i1 %.not.i47 to i8
  %.val7.i = load ptr, ptr %11, align 8, !tbaa !49
  %53 = getelementptr inbounds i8, ptr %.val7.i, i64 %8
  store i8 %52, ptr %53, align 1, !tbaa !50
  %54 = getelementptr inbounds nuw i8, ptr %0, i64 64
  %55 = getelementptr inbounds nuw i8, ptr %0, i64 68
  %56 = load i32, ptr %55, align 4, !tbaa !30
  %57 = load i32, ptr %54, align 8, !tbaa !33
  %58 = icmp eq i32 %56, %57
  br i1 %58, label %59, label %.Vec_IntGrow.exit10_crit_edge.i.i

.Vec_IntGrow.exit10_crit_edge.i.i:                ; preds = %.thread
  %.phi.trans.insert.i.i = getelementptr inbounds nuw i8, ptr %0, i64 72
  %.pre.i.i = load ptr, ptr %.phi.trans.insert.i.i, align 8, !tbaa !32
  br label %Min_LitSetValL.exit

59:                                               ; preds = %.thread
  %60 = icmp slt i32 %56, 16
  br i1 %60, label %61, label %69

61:                                               ; preds = %59
  %62 = getelementptr inbounds nuw i8, ptr %0, i64 72
  %63 = load ptr, ptr %62, align 8, !tbaa !32
  %.not9.i.i.i = icmp eq ptr %63, null
  br i1 %.not9.i.i.i, label %66, label %64

64:                                               ; preds = %61
  %65 = tail call dereferenceable_or_null(64) ptr @realloc(ptr noundef nonnull %63, i64 noundef 64) #28
  br label %Vec_IntGrow.exit.i.i

66:                                               ; preds = %61
  %67 = tail call noalias dereferenceable_or_null(64) ptr @malloc(i64 noundef 64) #26
  br label %Vec_IntGrow.exit.i.i

Vec_IntGrow.exit.i.i:                             ; preds = %66, %64
  %68 = phi ptr [ %65, %64 ], [ %67, %66 ]
  store ptr %68, ptr %62, align 8, !tbaa !32
  store i32 16, ptr %54, align 8, !tbaa !33
  br label %Min_LitSetValL.exit

69:                                               ; preds = %59
  %70 = shl nuw nsw i32 %56, 1
  %71 = getelementptr inbounds nuw i8, ptr %0, i64 72
  %72 = load ptr, ptr %71, align 8, !tbaa !32
  %.not9.i9.i.i = icmp eq ptr %72, null
  %73 = zext nneg i32 %70 to i64
  %74 = shl nuw nsw i64 %73, 2
  br i1 %.not9.i9.i.i, label %77, label %75

75:                                               ; preds = %69
  %76 = tail call ptr @realloc(ptr noundef nonnull %72, i64 noundef %74) #28
  br label %79

77:                                               ; preds = %69
  %78 = tail call noalias ptr @malloc(i64 noundef %74) #26
  br label %79

79:                                               ; preds = %77, %75
  %80 = phi ptr [ %76, %75 ], [ %78, %77 ]
  store ptr %80, ptr %71, align 8, !tbaa !32
  store i32 %70, ptr %54, align 8, !tbaa !33
  br label %Min_LitSetValL.exit

Min_LitSetValL.exit:                              ; preds = %.Vec_IntGrow.exit10_crit_edge.i.i, %Vec_IntGrow.exit.i.i, %79
  %81 = phi ptr [ %.pre.i.i, %.Vec_IntGrow.exit10_crit_edge.i.i ], [ %80, %79 ], [ %68, %Vec_IntGrow.exit.i.i ]
  %82 = ashr i32 %1, 1
  %83 = load i32, ptr %55, align 4, !tbaa !30
  %84 = add nsw i32 %83, 1
  store i32 %84, ptr %55, align 4, !tbaa !30
  %85 = sext i32 %83 to i64
  %86 = getelementptr inbounds i32, ptr %81, i64 %85
  store i32 %82, ptr %86, align 4, !tbaa !35
  br label %.thread53

.thread53:                                        ; preds = %38, %Min_LitSetValL.exit, %select.unfold
  %.135 = phi i8 [ %50, %Min_LitSetValL.exit ], [ %.034, %select.unfold ], [ 2, %38 ]
  ret i8 %.135
}